target datalayout = "e-m:e-p270:32:32-p271:32:32-p272:64:64-i64:64-i128:128-f80:128-n8:16:32:64-S128"
target triple = "x86_64-pc-linux-gnu"

%"class.clang::interp::MemberPointer" = type <{ %"class.clang::interp::Pointer", ptr, i32, [4 x i8] }>
%"class.clang::interp::Pointer" = type <{ i64, ptr, ptr, %union.anon.45, i32, [4 x i8] }>
%union.anon.45 = type { %"struct.clang::interp::BlockPointer", [8 x i8] }
%"struct.clang::interp::BlockPointer" = type { ptr, i32 }
%"struct.clang::interp::IntPointer" = type { ptr, i64 }

; Function Attrs: mustprogress nounwind uwtable
define linkonce_odr hidden void @_ZN5clang6interp7PointerC2Ev(ptr noundef nonnull align 8 dereferenceable(52) %0) unnamed_addr #0 comdat align 2 {
  %2 = alloca ptr, align 8
  store ptr %0, ptr %2, align 8
  %3 = load ptr, ptr %2, align 8
  %4 = getelementptr inbounds nuw %"class.clang::interp::Pointer", ptr %3, i32 0, i32 0
  store i64 0, ptr %4, align 8
  %5 = getelementptr inbounds nuw %"class.clang::interp::Pointer", ptr %3, i32 0, i32 1
  store ptr null, ptr %5, align 8
  %6 = getelementptr inbounds nuw %"class.clang::interp::Pointer", ptr %3, i32 0, i32 2
  store ptr null, ptr %6, align 8
  %7 = getelementptr inbounds nuw %"class.clang::interp::Pointer", ptr %3, i32 0, i32 4
  store i32 1, ptr %7, align 8
  %8 = getelementptr inbounds nuw %"class.clang::interp::Pointer", ptr %3, i32 0, i32 4
  store i32 1, ptr %8, align 8
  %9 = getelementptr inbounds nuw %"class.clang::interp::Pointer", ptr %3, i32 0, i32 3
  %10 = getelementptr inbounds nuw %"struct.clang::interp::IntPointer", ptr %9, i32 0, i32 1
  store i64 0, ptr %10, align 8
  %11 = getelementptr inbounds nuw %"class.clang::interp::Pointer", ptr %3, i32 0, i32 3
  %12 = getelementptr inbounds nuw %"struct.clang::interp::IntPointer", ptr %11, i32 0, i32 0
  store ptr null, ptr %12, align 8
  ret void
}

; Function Attrs: mustprogress nounwind uwtable
define linkonce_odr hidden void @_ZN5clang6interp13MemberPointerC2Ev(ptr noundef nonnull align 8 dereferenceable(72) %0) unnamed_addr #0 comdat align 2 {
  %2 = alloca ptr, align 8
  store ptr %0, ptr %2, align 8
  %3 = load ptr, ptr %2, align 8
  %4 = getelementptr inbounds nuw %"class.clang::interp::MemberPointer", ptr %3, i32 0, i32 0
  call void @_ZN5clang6interp7PointerC2Ev(ptr noundef nonnull align 8 dereferenceable(52) %4)
  %5 = getelementptr inbounds nuw %"class.clang::interp::MemberPointer", ptr %3, i32 0, i32 1
  store ptr null, ptr %5, align 8
  %6 = getelementptr inbounds nuw %"class.clang::interp::MemberPointer", ptr %3, i32 0, i32 2
  store i32 0, ptr %6, align 8
  ret void
}

; Function Attrs: mustprogress nounwind uwtable
define internal void @_ZL6ctorTyIN5clang6interp13MemberPointerEEvPNS1_5BlockEPSt4bytebbbbPKNS1_10DescriptorE(ptr noundef %0, ptr noundef %1, i1 noundef zeroext %2, i1 noundef zeroext %3, i1 noundef zeroext %4, i1 noundef zeroext %5, ptr noundef %6) #0 {
  %8 = alloca ptr, align 8
  %9 = alloca ptr, align 8
  %10 = alloca i8, align 1
  %11 = alloca i8, align 1
  %12 = alloca i8, align 1
  %13 = alloca i8, align 1
  %14 = alloca ptr, align 8
  store ptr %0, ptr %8, align 8
  store ptr %1, ptr %9, align 8
  %15 = zext i1 %2 to i8
  store i8 %15, ptr %10, align 1
  %16 = zext i1 %3 to i8
  store i8 %16, ptr %11, align 1
  %17 = zext i1 %4 to i8
  store i8 %17, ptr %12, align 1
  %18 = zext i1 %5 to i8
  store i8 %18, ptr %13, align 1
  store ptr %6, ptr %14, align 8
  %19 = load ptr, ptr %9, align 8
  call void @llvm.memset.p0.i64(ptr align 8 %19, i8 0, i64 72, i1 false)
  call void @_ZN5clang6interp13MemberPointerC2Ev(ptr noundef nonnull align 8 dereferenceable(72) %19)
  ret void
}