; Function Attrs: mustprogress nofree norecurse nosync nounwind willreturn memory(argmem: write) uwtable
define internal void @_ZL6ctorTyIN5clang6interp13MemberPointerEEvPNS1_5BlockEPSt4bytebbbbPKNS1_10DescriptorE(ptr nocapture readnone %0, ptr nocapture noundef writeonly %1, i1 zeroext %2, i1 zeroext %3, i1 zeroext %4, i1 zeroext %5, ptr nocapture readnone %6) #9 {
  %8 = getelementptr inbounds nuw i8, ptr %1, i64 48
  tail call void @llvm.memset.p0.i64(ptr noundef nonnull align 8 dereferenceable(72) %1, i8 0, i64 72, i1 false)
  store i32 1, ptr %8, align 8
  %9 = getelementptr inbounds nuw i8, ptr %1, i64 24
  tail call void @llvm.memset.p0.i64(ptr noundef nonnull align 8 dereferenceable(16) %9, i8 0, i64 16, i1 false)
  %10 = getelementptr inbounds nuw i8, ptr %1, i64 64
  store i32 0, ptr %10, align 8
  ret void
}